; Function Attrs: mustprogress uwtable
define void @_ZN2cv6stereo16StereoBinarySGBM6createEiiiiiiiiiii(ptr dead_on_unwind noalias writable writeonly sret(%"struct.cv::Ptr") align 8 captures(none) %0, i32 noundef %1, i32 noundef %2, i32 noundef %3, i32 noundef %4, i32 noundef %5, i32 noundef %6, i32 noundef %7, i32 noundef %8, i32 noundef %9, i32 noundef %10, i32 noundef %11) local_unnamed_addr #3 align 2 personality ptr @__gxx_personality_v0 {
  %13 = tail call noalias noundef nonnull dereferenceable(263088) ptr @_Znwm(i64 noundef 263088) #21
  invoke void @_ZN2cv6stereo20StereoBinarySGBMImplC2Eiiiiiiiiiii(ptr noundef nonnull align 8 dereferenceable(263088) %13, i32 noundef %1, i32 noundef %2, i32 noundef %3, i32 noundef %4, i32 noundef %5, i32 noundef %6, i32 noundef %7, i32 noundef %8, i32 noundef %9, i32 noundef %10, i32 noundef %11)
          to label %14 unwind label %30

14:                                               ; preds = %12
  store ptr %13, ptr %0, align 8, !tbaa !3
  %15 = getelementptr inbounds nuw i8, ptr %0, i64 8
  store ptr null, ptr %15, align 8, !tbaa !11
  %16 = invoke noalias noundef nonnull dereferenceable(24) ptr @_Znwm(i64 noundef 24) #21
          to label %_ZNSt14__shared_countILN9__gnu_cxx12_Lock_policyE2EEC2IPN2cv6stereo20StereoBinarySGBMImplEEET_.exit unwind label %17

17:                                               ; preds = %14
  %18 = landingpad { ptr, i32 }
          catch ptr null
  %19 = extractvalue { ptr, i32 } %18, 0
  %20 = tail call ptr @__cxa_begin_catch(ptr %19) #22
  tail call void @_ZN2cv6stereo20StereoBinarySGBMImplD2Ev(ptr noundef nonnull align 8 dereferenceable(263088) %13) #22
  tail call void @_ZdlPv(ptr noundef nonnull %13) #23
  invoke void @__cxa_rethrow() #24
          to label %26 unwind label %21

21:                                               ; preds = %17
  %22 = landingpad { ptr, i32 }
          cleanup
  invoke void @__cxa_end_catch()
          to label %common.resume unwind label %23

common.resume:                                    ; preds = %21, %30
  %common.resume.op = phi { ptr, i32 } [ %31, %30 ], [ %22, %21 ]
  resume { ptr, i32 } %common.resume.op

23:                                               ; preds = %21
  %24 = landingpad { ptr, i32 }
          catch ptr null
  %25 = extractvalue { ptr, i32 } %24, 0
  tail call void @__clang_call_terminate(ptr %25) #25
  unreachable

26:                                               ; preds = %17
  unreachable

_ZNSt14__shared_countILN9__gnu_cxx12_Lock_policyE2EEC2IPN2cv6stereo20StereoBinarySGBMImplEEET_.exit: ; preds = %14
  %27 = getelementptr inbounds nuw i8, ptr %16, i64 8
  store i32 1, ptr %27, align 8, !tbaa !12
  %28 = getelementptr inbounds nuw i8, ptr %16, i64 12
  store i32 1, ptr %28, align 4, !tbaa !15
  store ptr getelementptr inbounds nuw inrange(-16, 40) (i8, ptr @_ZTVSt15_Sp_counted_ptrIPN2cv6stereo20StereoBinarySGBMImplELN9__gnu_cxx12_Lock_policyE2EE, i64 16), ptr %16, align 8, !tbaa !16
  %29 = getelementptr inbounds nuw i8, ptr %16, i64 16
  store ptr %13, ptr %29, align 8, !tbaa !18
  store ptr %16, ptr %15, align 8, !tbaa !11
  ret void

30:                                               ; preds = %12
  %31 = landingpad { ptr, i32 }
          cleanup
  tail call void @_ZdlPv(ptr noundef nonnull %13) #23
  br label %common.resume
}